; Function Attrs: nounwind uwtable
define ptr @l_Array_mkArray8___rarg(ptr noundef %0, ptr noundef %1, ptr noundef %2, ptr noundef %3, ptr noundef %4, ptr noundef %5, ptr noundef %6, ptr noundef %7) #0 {
  %9 = load ptr, ptr @l_Array_mkArray8___rarg___closed__1, align 8, !tbaa !10
  %10 = tail call ptr @lean_array_push(ptr noundef %9, ptr noundef %0) #11
  %11 = tail call ptr @lean_array_push(ptr noundef %10, ptr noundef %1) #11
  %12 = tail call ptr @lean_array_push(ptr noundef %11, ptr noundef %2) #11
  %13 = tail call ptr @lean_array_push(ptr noundef %12, ptr noundef %3) #11
  %14 = tail call ptr @lean_array_push(ptr noundef %13, ptr noundef %4) #11
  %15 = tail call ptr @lean_array_push(ptr noundef %14, ptr noundef %5) #11
  %16 = tail call ptr @lean_array_push(ptr noundef %15, ptr noundef %6) #11
  %17 = tail call ptr @lean_array_push(ptr noundef %16, ptr noundef %7) #11
  ret ptr %17
}